target datalayout = "e-m:e-p270:32:32-p271:32:32-p272:64:64-i64:64-i128:128-f80:128-n8:16:32:64-S128"
target triple = "x86_64-pc-linux-gnu"

; Function Attrs: nounwind uwtable
define hidden i32 @mbedtls_pk_parse_keyfile(ptr noundef %0, ptr noundef %1, ptr noundef %2, ptr noundef %3, ptr noundef %4) #0 {
  %6 = alloca i32, align 4
  %7 = alloca ptr, align 8
  %8 = alloca ptr, align 8
  %9 = alloca ptr, align 8
  %10 = alloca ptr, align 8
  %11 = alloca ptr, align 8
  %12 = alloca i32, align 4
  %13 = alloca i64, align 8
  %14 = alloca ptr, align 8
  %15 = alloca i32, align 4
  store ptr %0, ptr %7, align 8, !tbaa !11
  store ptr %1, ptr %8, align 8, !tbaa !9
  store ptr %2, ptr %9, align 8, !tbaa !9
  store ptr %3, ptr %10, align 8, !tbaa !19
  store ptr %4, ptr %11, align 8, !tbaa !19
  call void @llvm.lifetime.start.p0(i64 4, ptr %12) #9
  store i32 -110, ptr %12, align 4, !tbaa !13
  call void @llvm.lifetime.start.p0(i64 8, ptr %13) #9
  call void @llvm.lifetime.start.p0(i64 8, ptr %14) #9
  %16 = load ptr, ptr %8, align 8, !tbaa !9
  %17 = call i32 @mbedtls_pk_load_file(ptr noundef %16, ptr noundef %14, ptr noundef %13)
  store i32 %17, ptr %12, align 4, !tbaa !13
  %18 = icmp ne i32 %17, 0
  br i1 %18, label %19, label %21

19:                                               ; preds = %5
  %20 = load i32, ptr %12, align 4, !tbaa !13
  store i32 %20, ptr %6, align 4
  store i32 1, ptr %15, align 4
  br label %45

21:                                               ; preds = %5
  %22 = load ptr, ptr %9, align 8, !tbaa !9
  %23 = icmp eq ptr %22, null
  br i1 %23, label %24, label %31

24:                                               ; preds = %21
  %25 = load ptr, ptr %7, align 8, !tbaa !11
  %26 = load ptr, ptr %14, align 8, !tbaa !9
  %27 = load i64, ptr %13, align 8, !tbaa !15
  %28 = load ptr, ptr %10, align 8, !tbaa !19
  %29 = load ptr, ptr %11, align 8, !tbaa !19
  %30 = call i32 @mbedtls_pk_parse_key(ptr noundef %25, ptr noundef %26, i64 noundef %27, ptr noundef null, i64 noundef 0, ptr noundef %28, ptr noundef %29)
  store i32 %30, ptr %12, align 4, !tbaa !13
  br label %41

31:                                               ; preds = %21
  %32 = load ptr, ptr %7, align 8, !tbaa !11
  %33 = load ptr, ptr %14, align 8, !tbaa !9
  %34 = load i64, ptr %13, align 8, !tbaa !15
  %35 = load ptr, ptr %9, align 8, !tbaa !9
  %36 = load ptr, ptr %9, align 8, !tbaa !9
  %37 = call i64 @strlen(ptr noundef %36) #11
  %38 = load ptr, ptr %10, align 8, !tbaa !19
  %39 = load ptr, ptr %11, align 8, !tbaa !19
  %40 = call i32 @mbedtls_pk_parse_key(ptr noundef %32, ptr noundef %33, i64 noundef %34, ptr noundef %35, i64 noundef %37, ptr noundef %38, ptr noundef %39)
  store i32 %40, ptr %12, align 4, !tbaa !13
  br label %41

41:                                               ; preds = %31, %24
  %42 = load ptr, ptr %14, align 8, !tbaa !9
  %43 = load i64, ptr %13, align 8, !tbaa !15
  call void @mbedtls_zeroize_and_free(ptr noundef %42, i64 noundef %43)
  %44 = load i32, ptr %12, align 4, !tbaa !13
  store i32 %44, ptr %6, align 4
  store i32 1, ptr %15, align 4
  br label %45

45:                                               ; preds = %41, %19
  call void @llvm.lifetime.end.p0(i64 8, ptr %14) #9
  call void @llvm.lifetime.end.p0(i64 8, ptr %13) #9
  call void @llvm.lifetime.end.p0(i64 4, ptr %12) #9
  %46 = load i32, ptr %6, align 4
  ret i32 %46
}