; Function Attrs: nounwind uwtable
define hidden i32 @mbedtls_pk_parse_keyfile(ptr noundef %0, ptr noundef readonly captures(none) %1, ptr noundef %2, ptr noundef %3, ptr noundef %4) local_unnamed_addr #0 {
  %6 = alloca i64, align 8
  %7 = alloca ptr, align 8
  call void @llvm.lifetime.start.p0(i64 8, ptr nonnull %6) #9
  call void @llvm.lifetime.start.p0(i64 8, ptr nonnull %7) #9
  %8 = call i32 @mbedtls_pk_load_file(ptr noundef %1, ptr noundef nonnull %7, ptr noundef nonnull %6)
  %.not = icmp eq i32 %8, 0
  br i1 %.not, label %9, label %19

9:                                                ; preds = %5
  %10 = icmp eq ptr %2, null
  %11 = load ptr, ptr %7, align 8, !tbaa !7
  %12 = load i64, ptr %6, align 8, !tbaa !10
  br i1 %10, label %13, label %15

13:                                               ; preds = %9
  %14 = tail call i32 @mbedtls_pk_parse_key(ptr noundef %0, ptr noundef %11, i64 noundef %12, ptr noundef null, i64 noundef 0, ptr noundef %3, ptr noundef %4)
  br label %18

15:                                               ; preds = %9
  %16 = tail call i64 @strlen(ptr noundef nonnull dereferenceable(1) %2) #11
  %17 = tail call i32 @mbedtls_pk_parse_key(ptr noundef %0, ptr noundef %11, i64 noundef %12, ptr noundef nonnull %2, i64 noundef %16, ptr noundef %3, ptr noundef %4)
  br label %18

18:                                               ; preds = %15, %13
  %.0 = phi i32 [ %14, %13 ], [ %17, %15 ]
  tail call void @mbedtls_zeroize_and_free(ptr noundef %11, i64 noundef %12) #9
  br label %19

19:                                               ; preds = %5, %18
  %.012 = phi i32 [ %.0, %18 ], [ %8, %5 ]
  call void @llvm.lifetime.end.p0(i64 8, ptr nonnull %7) #9
  call void @llvm.lifetime.end.p0(i64 8, ptr nonnull %6) #9
  ret i32 %.012
}